CCS PCM C Compiler, Version 5.007, 61971               05-Mar-26 14:49

               Filename:   C:\Users\ogrenci\Desktop\005_kesme\main.lst

               ROM used:   92 words (1%)
                           Largest free fragment is 2048
               RAM used:   12 (3%) at main() level
                           12 (3%) worst case
               Stack used: 1 locations (0 in main + 1 for interrupts)
               Stack size: 8

*
0000:  MOVLW  00
0001:  MOVWF  0A
0002:  GOTO   034
0003:  NOP
0004:  MOVWF  7F
0005:  SWAPF  03,W
0006:  CLRF   03
0007:  MOVWF  21
0008:  MOVF   0A,W
0009:  MOVWF  20
000A:  CLRF   0A
000B:  MOVF   04,W
000C:  MOVWF  22
000D:  MOVF   77,W
000E:  MOVWF  23
000F:  MOVF   78,W
0010:  MOVWF  24
0011:  MOVF   79,W
0012:  MOVWF  25
0013:  MOVF   7A,W
0014:  MOVWF  26
0015:  BCF    03.7
0016:  BCF    03.5
0017:  BTFSS  0B.4
0018:  GOTO   01B
0019:  BTFSC  0B.1
001A:  GOTO   02C
001B:  MOVF   22,W
001C:  MOVWF  04
001D:  MOVF   23,W
001E:  MOVWF  77
001F:  MOVF   24,W
0020:  MOVWF  78
0021:  MOVF   25,W
0022:  MOVWF  79
0023:  MOVF   26,W
0024:  MOVWF  7A
0025:  MOVF   20,W
0026:  MOVWF  0A
0027:  SWAPF  21,W
0028:  MOVWF  03
0029:  SWAPF  7F,F
002A:  SWAPF  7F,W
002B:  RETFIE
002C:  BCF    0A.3
002D:  BCF    0A.4
002E:  GOTO   02F
.................... #include <16f877.h> // Eksik olan kütüphane eklendi 
.................... //////// Standard Header file for the PIC16F877 device //////////////// 
.................... #device PIC16F877 
....................  
.................... #list 
....................  
....................  
.................... // Denetleyici Konfigürasyonu 
.................... #fuses XT, NOWDT, NOPROTECT, NOBROWNOUT, NOLVP, NOPUT, NOWRT, NODEBUG 
.................... #use delay(clock=4M) 
.................... #use fast_io(b) 
....................  
.................... // --- DIÞ KESME FONKSÝYONU --- 
.................... #int_ext 
.................... void dis_kesme()  
.................... { 
....................     // Kesme tetiklendiðinde B portundaki tüm çýkýþlarý sýfýrla 
....................     output_b(0x00);  
002F:  CLRF   06
0030:  BCF    0B.1
0031:  BCF    0A.3
0032:  BCF    0A.4
0033:  GOTO   01B
.................... } 
....................  
.................... void main()  
0034:  BSF    03.5
0035:  BSF    1F.0
0036:  BSF    1F.1
0037:  BSF    1F.2
0038:  BCF    1F.3
0039:  BCF    03.7
003A:  MOVLW  1F
003B:  ANDWF  03,F
.................... { 
....................     // Modülleri Devre Dýþý Býrakma (Güç tasarrufu ve stabilite için) 
....................     setup_psp(PSP_DISABLED); 
003C:  BCF    09.4
....................     setup_timer_1(T1_DISABLED); 
003D:  BCF    03.5
003E:  CLRF   10
....................     setup_timer_2(T2_DISABLED, 0, 1); 
003F:  MOVLW  00
0040:  MOVWF  78
0041:  MOVWF  12
0042:  MOVLW  00
0043:  BSF    03.5
0044:  MOVWF  12
....................     setup_adc_ports(NO_ANALOGS); 
0045:  BSF    1F.0
0046:  BSF    1F.1
0047:  BSF    1F.2
0048:  BCF    1F.3
....................     setup_adc(ADC_OFF); 
0049:  BCF    03.5
004A:  BCF    1F.0
....................     setup_ccp1(CCP_OFF); 
004B:  MOVLW  F0
004C:  ANDWF  17,F
....................     setup_ccp2(CCP_OFF); 
004D:  ANDWF  1D,F
....................  
....................     // Port Ayarlarý 
....................     set_tris_b(0x01);   // RB0 giriþ (Kesme pini), diðerleri çýkýþ 
004E:  MOVLW  01
004F:  BSF    03.5
0050:  MOVWF  06
....................     output_b(0x02);     // Baþlangýçta RB1 pinini lojik-1 yap 
0051:  MOVLW  02
0052:  BCF    03.5
0053:  MOVWF  06
....................  
....................     // Kesme Konfigürasyonu 
....................     ext_int_edge(H_TO_L);       // Düþen kenar tetiklemesi (Yüksekten Alçaða) 
0054:  BSF    03.5
0055:  BCF    01.6
....................     enable_interrupts(INT_EXT); // Dýþ kesmeyi aktif et 
0056:  BCF    03.5
0057:  BSF    0B.4
....................     enable_interrupts(GLOBAL);  // Genel kesmeleri aktif et 
0058:  MOVLW  C0
0059:  IORWF  0B,F
....................  
....................     // Ana Döngü 
....................     while(TRUE)  
....................     { 
005A:  GOTO   05A
....................         // Ýþlemci burada bekler, kesme gelince dis_kesme fonksiyonuna atlar 
....................     } 
.................... } 
005B:  SLEEP

Configuration Fuses:
   Word  1: 3F39   XT NOWDT NOPUT NOBROWNOUT NOLVP NOCPD NOWRT NODEBUG NOPROTECT
